target datalayout = "e-m:e-p270:32:32-p271:32:32-p272:64:64-i64:64-i128:128-f80:128-n8:16:32:64-S128"
target triple = "x86_64-pc-linux-gnu"

%struct.DdManager = type { %struct.DdNode, ptr, ptr, ptr, ptr, ptr, ptr, ptr, i32, i32, double, double, double, i32, i32, i32, i32, i32, i32, ptr, ptr, %struct.DdSubtable, i32, i32, i32, i32, i32, i32, i32, double, i32, i32, i32, ptr, i64, double, i32, ptr, ptr, ptr, ptr, ptr, ptr, ptr, i32, ptr, ptr, ptr, ptr, ptr, ptr, i32, i32, i32, double, i32, i32, i32, i32, double, double, i32, i32, i32, i32, i32, i32, i32, i32, i32, ptr, ptr, i32, i32, i32, i32, i32, i32, ptr, ptr, ptr, ptr, ptr, ptr, ptr, ptr, i32, i64, i64, i64, i32, i64, i64, double, double, double, double, double, double, i32, ptr, ptr, i64 }
%struct.DdNode = type { i32, i32, ptr, %union.anon, i64 }
%union.anon = type { %struct.DdChildren }
%struct.DdChildren = type { ptr, ptr }
%struct.DdSubtable = type { ptr, i32, i32, i32, i32, i32, i32, i32, i32, i32, i32, i32 }

@.str.49 = private unnamed_addr constant [20 x i8] c"%s reordering with \00", align 1
@.str.50 = private unnamed_addr constant [12 x i8] c"converging \00", align 1
@.str.51 = private unnamed_addr constant [7 x i8] c"random\00", align 1
@.str.52 = private unnamed_addr constant [8 x i8] c"sifting\00", align 1
@.str.53 = private unnamed_addr constant [18 x i8] c"symmetric sifting\00", align 1
@.str.54 = private unnamed_addr constant [13 x i8] c"lazy sifting\00", align 1
@.str.55 = private unnamed_addr constant [14 x i8] c"group sifting\00", align 1
@.str.56 = private unnamed_addr constant [7 x i8] c"window\00", align 1
@.str.57 = private unnamed_addr constant [10 x i8] c"annealing\00", align 1
@.str.58 = private unnamed_addr constant [8 x i8] c"genetic\00", align 1
@.str.59 = private unnamed_addr constant [15 x i8] c"linear sifting\00", align 1
@.str.60 = private unnamed_addr constant [6 x i8] c"exact\00", align 1
@.str.61 = private unnamed_addr constant [19 x i8] c": from %ld to ... \00", align 1
@.str.62 = private unnamed_addr constant [4 x i8] c"BDD\00", align 1

; Function Attrs: nounwind uwtable
define i64 @Cudd_zddReadNodeCount(ptr noundef %0) #0 {
  %2 = alloca ptr, align 8
  store ptr %0, ptr %2, align 8
  %3 = load ptr, ptr %2, align 8
  %4 = getelementptr inbounds %struct.DdManager, ptr %3, i32 0, i32 24
  %5 = load i32, ptr %4, align 8
  %6 = load ptr, ptr %2, align 8
  %7 = getelementptr inbounds %struct.DdManager, ptr %6, i32 0, i32 26
  %8 = load i32, ptr %7, align 8
  %9 = sub i32 %5, %8
  %10 = add i32 %9, 2
  %11 = zext i32 %10 to i64
  ret i64 %11
}

; Function Attrs: nounwind uwtable
define i64 @Cudd_ReadNodeCount(ptr noundef %0) #0 {
  %2 = alloca ptr, align 8
  %3 = alloca i64, align 8
  %4 = alloca i32, align 4
  store ptr %0, ptr %2, align 8
  %5 = load ptr, ptr %2, align 8
  call void @cuddClearDeathRow(ptr noundef %5)
  %6 = load ptr, ptr %2, align 8
  %7 = getelementptr inbounds %struct.DdManager, ptr %6, i32 0, i32 23
  %8 = load i32, ptr %7, align 4
  %9 = load ptr, ptr %2, align 8
  %10 = getelementptr inbounds %struct.DdManager, ptr %9, i32 0, i32 25
  %11 = load i32, ptr %10, align 4
  %12 = sub i32 %8, %11
  %13 = zext i32 %12 to i64
  store i64 %13, ptr %3, align 8
  store i32 0, ptr %4, align 4
  br label %14

14:                                               ; preds = %35, %1
  %15 = load i32, ptr %4, align 4
  %16 = load ptr, ptr %2, align 8
  %17 = getelementptr inbounds %struct.DdManager, ptr %16, i32 0, i32 15
  %18 = load i32, ptr %17, align 8
  %19 = icmp slt i32 %15, %18
  br i1 %19, label %20, label %38

20:                                               ; preds = %14
  %21 = load ptr, ptr %2, align 8
  %22 = getelementptr inbounds %struct.DdManager, ptr %21, i32 0, i32 41
  %23 = load ptr, ptr %22, align 8
  %24 = load i32, ptr %4, align 4
  %25 = sext i32 %24 to i64
  %26 = getelementptr inbounds ptr, ptr %23, i64 %25
  %27 = load ptr, ptr %26, align 8
  %28 = getelementptr inbounds %struct.DdNode, ptr %27, i32 0, i32 1
  %29 = load i32, ptr %28, align 4
  %30 = icmp eq i32 %29, 1
  br i1 %30, label %31, label %34

31:                                               ; preds = %20
  %32 = load i64, ptr %3, align 8
  %33 = add nsw i64 %32, -1
  store i64 %33, ptr %3, align 8
  br label %34

34:                                               ; preds = %31, %20
  br label %35

35:                                               ; preds = %34
  %36 = load i32, ptr %4, align 4
  %37 = add nsw i32 %36, 1
  store i32 %37, ptr %4, align 4
  br label %14, !llvm.loop !30

38:                                               ; preds = %14
  %39 = load ptr, ptr %2, align 8
  %40 = getelementptr inbounds %struct.DdManager, ptr %39, i32 0, i32 2
  %41 = load ptr, ptr %40, align 8
  %42 = getelementptr inbounds %struct.DdNode, ptr %41, i32 0, i32 1
  %43 = load i32, ptr %42, align 4
  %44 = icmp eq i32 %43, 1
  br i1 %44, label %45, label %48

45:                                               ; preds = %38
  %46 = load i64, ptr %3, align 8
  %47 = add nsw i64 %46, -1
  store i64 %47, ptr %3, align 8
  br label %48

48:                                               ; preds = %45, %38
  %49 = load ptr, ptr %2, align 8
  %50 = getelementptr inbounds %struct.DdManager, ptr %49, i32 0, i32 3
  %51 = load ptr, ptr %50, align 8
  %52 = getelementptr inbounds %struct.DdNode, ptr %51, i32 0, i32 1
  %53 = load i32, ptr %52, align 4
  %54 = icmp eq i32 %53, 1
  br i1 %54, label %55, label %58

55:                                               ; preds = %48
  %56 = load i64, ptr %3, align 8
  %57 = add nsw i64 %56, -1
  store i64 %57, ptr %3, align 8
  br label %58

58:                                               ; preds = %55, %48
  %59 = load ptr, ptr %2, align 8
  %60 = getelementptr inbounds %struct.DdManager, ptr %59, i32 0, i32 4
  %61 = load ptr, ptr %60, align 8
  %62 = getelementptr inbounds %struct.DdNode, ptr %61, i32 0, i32 1
  %63 = load i32, ptr %62, align 4
  %64 = icmp eq i32 %63, 1
  br i1 %64, label %65, label %68

65:                                               ; preds = %58
  %66 = load i64, ptr %3, align 8
  %67 = add nsw i64 %66, -1
  store i64 %67, ptr %3, align 8
  br label %68

68:                                               ; preds = %65, %58
  %69 = load i64, ptr %3, align 8
  ret i64 %69
}

; Function Attrs: nounwind uwtable
define i32 @Cudd_StdPreReordHook(ptr noundef %0, ptr noundef %1, ptr noundef %2) #0 {
  %4 = alloca i32, align 4
  %5 = alloca ptr, align 8
  %6 = alloca ptr, align 8
  %7 = alloca ptr, align 8
  %8 = alloca i32, align 4
  %9 = alloca i32, align 4
  store ptr %0, ptr %5, align 8
  store ptr %1, ptr %6, align 8
  store ptr %2, ptr %7, align 8
  %10 = load ptr, ptr %7, align 8
  %11 = ptrtoint ptr %10 to i64
  %12 = trunc i64 %11 to i32
  store i32 %12, ptr %8, align 4
  %13 = load ptr, ptr %5, align 8
  %14 = getelementptr inbounds %struct.DdManager, ptr %13, i32 0, i32 84
  %15 = load ptr, ptr %14, align 8
  %16 = load ptr, ptr %6, align 8
  %17 = call i32 (ptr, ptr, ...) @fprintf(ptr noundef %15, ptr noundef @.str.49, ptr noundef %16) #8
  store i32 %17, ptr %9, align 4
  %18 = load i32, ptr %9, align 4
  %19 = icmp eq i32 %18, -1
  br i1 %19, label %20, label %21

20:                                               ; preds = %3
  store i32 0, ptr %4, align 4
  br label %114

21:                                               ; preds = %3
  %22 = load i32, ptr %8, align 4
  switch i32 %22, label %32 [
    i32 5, label %23
    i32 7, label %23
    i32 15, label %23
    i32 11, label %23
    i32 12, label %23
    i32 13, label %23
    i32 19, label %23
  ]

23:                                               ; preds = %21, %21, %21, %21, %21, %21, %21
  %24 = load ptr, ptr %5, align 8
  %25 = getelementptr inbounds %struct.DdManager, ptr %24, i32 0, i32 84
  %26 = load ptr, ptr %25, align 8
  %27 = call i32 (ptr, ptr, ...) @fprintf(ptr noundef %26, ptr noundef @.str.50) #8
  store i32 %27, ptr %9, align 4
  %28 = load i32, ptr %9, align 4
  %29 = icmp eq i32 %28, -1
  br i1 %29, label %30, label %31

30:                                               ; preds = %23
  store i32 0, ptr %4, align 4
  br label %114

31:                                               ; preds = %23
  br label %33

32:                                               ; preds = %21
  br label %33

33:                                               ; preds = %32, %31
  %34 = load i32, ptr %8, align 4
  switch i32 %34, label %85 [
    i32 2, label %35
    i32 3, label %35
    i32 4, label %40
    i32 5, label %40
    i32 6, label %45
    i32 7, label %45
    i32 20, label %50
    i32 14, label %55
    i32 15, label %55
    i32 8, label %60
    i32 9, label %60
    i32 10, label %60
    i32 11, label %60
    i32 12, label %60
    i32 13, label %60
    i32 16, label %65
    i32 17, label %70
    i32 18, label %75
    i32 19, label %75
    i32 21, label %80
  ]

35:                                               ; preds = %33, %33
  %36 = load ptr, ptr %5, align 8
  %37 = getelementptr inbounds %struct.DdManager, ptr %36, i32 0, i32 84
  %38 = load ptr, ptr %37, align 8
  %39 = call i32 (ptr, ptr, ...) @fprintf(ptr noundef %38, ptr noundef @.str.51) #8
  store i32 %39, ptr %9, align 4
  br label %86

40:                                               ; preds = %33, %33
  %41 = load ptr, ptr %5, align 8
  %42 = getelementptr inbounds %struct.DdManager, ptr %41, i32 0, i32 84
  %43 = load ptr, ptr %42, align 8
  %44 = call i32 (ptr, ptr, ...) @fprintf(ptr noundef %43, ptr noundef @.str.52) #8
  store i32 %44, ptr %9, align 4
  br label %86

45:                                               ; preds = %33, %33
  %46 = load ptr, ptr %5, align 8
  %47 = getelementptr inbounds %struct.DdManager, ptr %46, i32 0, i32 84
  %48 = load ptr, ptr %47, align 8
  %49 = call i32 (ptr, ptr, ...) @fprintf(ptr noundef %48, ptr noundef @.str.53) #8
  store i32 %49, ptr %9, align 4
  br label %86

50:                                               ; preds = %33
  %51 = load ptr, ptr %5, align 8
  %52 = getelementptr inbounds %struct.DdManager, ptr %51, i32 0, i32 84
  %53 = load ptr, ptr %52, align 8
  %54 = call i32 (ptr, ptr, ...) @fprintf(ptr noundef %53, ptr noundef @.str.54) #8
  store i32 %54, ptr %9, align 4
  br label %86

55:                                               ; preds = %33, %33
  %56 = load ptr, ptr %5, align 8
  %57 = getelementptr inbounds %struct.DdManager, ptr %56, i32 0, i32 84
  %58 = load ptr, ptr %57, align 8
  %59 = call i32 (ptr, ptr, ...) @fprintf(ptr noundef %58, ptr noundef @.str.55) #8
  store i32 %59, ptr %9, align 4
  br label %86

60:                                               ; preds = %33, %33, %33, %33, %33, %33
  %61 = load ptr, ptr %5, align 8
  %62 = getelementptr inbounds %struct.DdManager, ptr %61, i32 0, i32 84
  %63 = load ptr, ptr %62, align 8
  %64 = call i32 (ptr, ptr, ...) @fprintf(ptr noundef %63, ptr noundef @.str.56) #8
  store i32 %64, ptr %9, align 4
  br label %86

65:                                               ; preds = %33
  %66 = load ptr, ptr %5, align 8
  %67 = getelementptr inbounds %struct.DdManager, ptr %66, i32 0, i32 84
  %68 = load ptr, ptr %67, align 8
  %69 = call i32 (ptr, ptr, ...) @fprintf(ptr noundef %68, ptr noundef @.str.57) #8
  store i32 %69, ptr %9, align 4
  br label %86

70:                                               ; preds = %33
  %71 = load ptr, ptr %5, align 8
  %72 = getelementptr inbounds %struct.DdManager, ptr %71, i32 0, i32 84
  %73 = load ptr, ptr %72, align 8
  %74 = call i32 (ptr, ptr, ...) @fprintf(ptr noundef %73, ptr noundef @.str.58) #8
  store i32 %74, ptr %9, align 4
  br label %86

75:                                               ; preds = %33, %33
  %76 = load ptr, ptr %5, align 8
  %77 = getelementptr inbounds %struct.DdManager, ptr %76, i32 0, i32 84
  %78 = load ptr, ptr %77, align 8
  %79 = call i32 (ptr, ptr, ...) @fprintf(ptr noundef %78, ptr noundef @.str.59) #8
  store i32 %79, ptr %9, align 4
  br label %86

80:                                               ; preds = %33
  %81 = load ptr, ptr %5, align 8
  %82 = getelementptr inbounds %struct.DdManager, ptr %81, i32 0, i32 84
  %83 = load ptr, ptr %82, align 8
  %84 = call i32 (ptr, ptr, ...) @fprintf(ptr noundef %83, ptr noundef @.str.60) #8
  store i32 %84, ptr %9, align 4
  br label %86

85:                                               ; preds = %33
  store i32 0, ptr %4, align 4
  br label %114

86:                                               ; preds = %80, %75, %70, %65, %60, %55, %50, %45, %40, %35
  %87 = load i32, ptr %9, align 4
  %88 = icmp eq i32 %87, -1
  br i1 %88, label %89, label %90

89:                                               ; preds = %86
  store i32 0, ptr %4, align 4
  br label %114

90:                                               ; preds = %86
  %91 = load ptr, ptr %5, align 8
  %92 = getelementptr inbounds %struct.DdManager, ptr %91, i32 0, i32 84
  %93 = load ptr, ptr %92, align 8
  %94 = load ptr, ptr %6, align 8
  %95 = call i32 @strcmp(ptr noundef %94, ptr noundef @.str.62) #10
  %96 = icmp eq i32 %95, 0
  br i1 %96, label %97, label %100

97:                                               ; preds = %90
  %98 = load ptr, ptr %5, align 8
  %99 = call i64 @Cudd_ReadNodeCount(ptr noundef %98)
  br label %103

100:                                              ; preds = %90
  %101 = load ptr, ptr %5, align 8
  %102 = call i64 @Cudd_zddReadNodeCount(ptr noundef %101)
  br label %103

103:                                              ; preds = %100, %97
  %104 = phi i64 [ %99, %97 ], [ %102, %100 ]
  %105 = call i32 (ptr, ptr, ...) @fprintf(ptr noundef %93, ptr noundef @.str.61, i64 noundef %104) #8
  store i32 %105, ptr %9, align 4
  %106 = load i32, ptr %9, align 4
  %107 = icmp eq i32 %106, -1
  br i1 %107, label %108, label %109

108:                                              ; preds = %103
  store i32 0, ptr %4, align 4
  br label %114

109:                                              ; preds = %103
  %110 = load ptr, ptr %5, align 8
  %111 = getelementptr inbounds %struct.DdManager, ptr %110, i32 0, i32 84
  %112 = load ptr, ptr %111, align 8
  %113 = call i32 @fflush(ptr noundef %112)
  store i32 1, ptr %4, align 4
  br label %114

114:                                              ; preds = %109, %108, %89, %85, %30, %20
  %115 = load i32, ptr %4, align 4
  ret i32 %115
}